target datalayout = "e-m:e-p270:32:32-p271:32:32-p272:64:64-i64:64-i128:128-f80:128-n8:16:32:64-S128"
target triple = "x86_64-pc-linux-gnu"

%struct.Curl_sockaddr_ex = type { i32, i32, i32, i32, %union.anon }
%union.anon = type { %struct.Curl_sockaddr_storage }
%struct.Curl_sockaddr_storage = type { %union.anon.0 }
%union.anon.0 = type { %struct.sockaddr_storage }
%struct.sockaddr_storage = type { i16, [118 x i8], i64 }
%struct.curltime = type { i64, i32 }
%struct.ip_quadruple = type { [46 x i8], [46 x i8], i32, i32 }
%struct.Curl_cfilter = type { ptr, ptr, ptr, ptr, i32, i8 }
%struct.cf_socket_ctx = type { i32, %struct.Curl_sockaddr_ex, i32, %struct.ip_quadruple, %struct.curltime, %struct.curltime, %struct.curltime, i32, i8 }

; Function Attrs: nounwind uwtable
define internal zeroext i1 @cf_is_socket(ptr noundef %0) #0 {
  %2 = alloca ptr, align 8
  store ptr %0, ptr %2, align 8, !tbaa !118
  %3 = load ptr, ptr %2, align 8, !tbaa !118
  %4 = icmp ne ptr %3, null
  br i1 %4, label %5, label %27

5:                                                ; preds = %1
  %6 = load ptr, ptr %2, align 8, !tbaa !118
  %7 = getelementptr inbounds nuw %struct.Curl_cfilter, ptr %6, i32 0, i32 0
  %8 = load ptr, ptr %7, align 8, !tbaa !128
  %9 = icmp eq ptr %8, @Curl_cft_tcp
  br i1 %9, label %25, label %10

10:                                               ; preds = %5
  %11 = load ptr, ptr %2, align 8, !tbaa !118
  %12 = getelementptr inbounds nuw %struct.Curl_cfilter, ptr %11, i32 0, i32 0
  %13 = load ptr, ptr %12, align 8, !tbaa !128
  %14 = icmp eq ptr %13, @Curl_cft_udp
  br i1 %14, label %25, label %15

15:                                               ; preds = %10
  %16 = load ptr, ptr %2, align 8, !tbaa !118
  %17 = getelementptr inbounds nuw %struct.Curl_cfilter, ptr %16, i32 0, i32 0
  %18 = load ptr, ptr %17, align 8, !tbaa !128
  %19 = icmp eq ptr %18, @Curl_cft_unix
  br i1 %19, label %25, label %20

20:                                               ; preds = %15
  %21 = load ptr, ptr %2, align 8, !tbaa !118
  %22 = getelementptr inbounds nuw %struct.Curl_cfilter, ptr %21, i32 0, i32 0
  %23 = load ptr, ptr %22, align 8, !tbaa !128
  %24 = icmp eq ptr %23, @Curl_cft_tcp_accept
  br label %25

25:                                               ; preds = %20, %15, %10, %5
  %26 = phi i1 [ true, %15 ], [ true, %10 ], [ true, %5 ], [ %24, %20 ]
  br label %27

27:                                               ; preds = %25, %1
  %28 = phi i1 [ false, %1 ], [ %26, %25 ]
  ret i1 %28
}

; Function Attrs: nounwind uwtable
define hidden i32 @Curl_cf_socket_peek(ptr noundef %0, ptr noundef %1, ptr noundef %2, ptr noundef %3, ptr noundef %4) #0 {
  %6 = alloca i32, align 4
  %7 = alloca ptr, align 8
  %8 = alloca ptr, align 8
  %9 = alloca ptr, align 8
  %10 = alloca ptr, align 8
  %11 = alloca ptr, align 8
  %12 = alloca ptr, align 8
  store ptr %0, ptr %7, align 8, !tbaa !118
  store ptr %1, ptr %8, align 8, !tbaa !23
  store ptr %2, ptr %9, align 8, !tbaa !25
  store ptr %3, ptr %10, align 8, !tbaa !172
  store ptr %4, ptr %11, align 8, !tbaa !174
  %13 = load ptr, ptr %7, align 8, !tbaa !118
  %14 = call zeroext i1 @cf_is_socket(ptr noundef %13)
  br i1 %14, label %15, label %46

15:                                               ; preds = %5
  %16 = load ptr, ptr %7, align 8, !tbaa !118
  %17 = getelementptr inbounds nuw %struct.Curl_cfilter, ptr %16, i32 0, i32 2
  %18 = load ptr, ptr %17, align 8, !tbaa !120
  %19 = icmp ne ptr %18, null
  br i1 %19, label %20, label %46

20:                                               ; preds = %15
  call void @llvm.lifetime.start.p0(i64 8, ptr %12) #9
  %21 = load ptr, ptr %7, align 8, !tbaa !118
  %22 = getelementptr inbounds nuw %struct.Curl_cfilter, ptr %21, i32 0, i32 2
  %23 = load ptr, ptr %22, align 8, !tbaa !120
  store ptr %23, ptr %12, align 8, !tbaa !123
  %24 = load ptr, ptr %9, align 8, !tbaa !25
  %25 = icmp ne ptr %24, null
  br i1 %25, label %26, label %31

26:                                               ; preds = %20
  %27 = load ptr, ptr %12, align 8, !tbaa !123
  %28 = getelementptr inbounds nuw %struct.cf_socket_ctx, ptr %27, i32 0, i32 2
  %29 = load i32, ptr %28, align 8, !tbaa !137
  %30 = load ptr, ptr %9, align 8, !tbaa !25
  store i32 %29, ptr %30, align 4, !tbaa !10
  br label %31

31:                                               ; preds = %26, %20
  %32 = load ptr, ptr %10, align 8, !tbaa !172
  %33 = icmp ne ptr %32, null
  br i1 %33, label %34, label %38

34:                                               ; preds = %31
  %35 = load ptr, ptr %12, align 8, !tbaa !123
  %36 = getelementptr inbounds nuw %struct.cf_socket_ctx, ptr %35, i32 0, i32 1
  %37 = load ptr, ptr %10, align 8, !tbaa !172
  store ptr %36, ptr %37, align 8, !tbaa !3
  br label %38

38:                                               ; preds = %34, %31
  %39 = load ptr, ptr %11, align 8, !tbaa !174
  %40 = icmp ne ptr %39, null
  br i1 %40, label %41, label %45

41:                                               ; preds = %38
  %42 = load ptr, ptr %11, align 8, !tbaa !174
  %43 = load ptr, ptr %12, align 8, !tbaa !123
  %44 = getelementptr inbounds nuw %struct.cf_socket_ctx, ptr %43, i32 0, i32 3
  call void @llvm.memcpy.p0.p0.i64(ptr align 4 %42, ptr align 4 %44, i64 100, i1 false), !tbaa.struct !159
  br label %45

45:                                               ; preds = %41, %38
  store i32 0, ptr %6, align 4
  call void @llvm.lifetime.end.p0(i64 8, ptr %12) #9
  br label %47

46:                                               ; preds = %15, %5
  store i32 2, ptr %6, align 4
  br label %47

47:                                               ; preds = %46, %45
  %48 = load i32, ptr %6, align 4
  ret i32 %48
}