; Function Attrs: mustprogress nofree norecurse nosync nounwind willreturn memory(readwrite, inaccessiblemem: none) uwtable
define hidden range(i32 0, 3) i32 @Curl_cf_socket_peek(ptr noundef readonly %0, ptr noundef readnone captures(none) %1, ptr noundef writeonly %2, ptr noundef writeonly %3, ptr noundef writeonly %4) local_unnamed_addr #0 {
  %.not.i = icmp eq ptr %0, null
  br i1 %.not.i, label %cf_is_socket.exit.thread, label %cf_is_socket.exit

cf_is_socket.exit:                                ; preds = %5
  %6 = load ptr, ptr %0, align 8, !tbaa !111
  %7 = icmp eq ptr %6, @Curl_cft_tcp
  %8 = icmp eq ptr %6, @Curl_cft_udp
  %or.cond.i = or i1 %7, %8
  %9 = icmp eq ptr %6, @Curl_cft_unix
  %or.cond6.i = or i1 %9, %or.cond.i
  %10 = icmp eq ptr %6, @Curl_cft_tcp_accept
  %spec.select.i = or i1 %10, %or.cond6.i
  br i1 %spec.select.i, label %11, label %cf_is_socket.exit.thread

11:                                               ; preds = %cf_is_socket.exit
  %12 = getelementptr inbounds nuw i8, ptr %0, i64 16
  %13 = load ptr, ptr %12, align 8, !tbaa !104
  %.not = icmp eq ptr %13, null
  br i1 %.not, label %cf_is_socket.exit.thread, label %14

14:                                               ; preds = %11
  %.not16 = icmp eq ptr %2, null
  br i1 %.not16, label %18, label %15

15:                                               ; preds = %14
  %16 = getelementptr inbounds nuw i8, ptr %13, i64 152
  %17 = load i32, ptr %16, align 8, !tbaa !116
  store i32 %17, ptr %2, align 4, !tbaa !87
  br label %18

18:                                               ; preds = %15, %14
  %.not17 = icmp eq ptr %3, null
  br i1 %.not17, label %21, label %19

19:                                               ; preds = %18
  %20 = getelementptr inbounds nuw i8, ptr %13, i64 8
  store ptr %20, ptr %3, align 8, !tbaa !153
  br label %21

21:                                               ; preds = %19, %18
  %.not18 = icmp eq ptr %4, null
  br i1 %.not18, label %cf_is_socket.exit.thread, label %22

22:                                               ; preds = %21
  %23 = getelementptr inbounds nuw i8, ptr %13, i64 156
  tail call void @llvm.memcpy.p0.p0.i64(ptr noundef nonnull align 4 dereferenceable(100) %4, ptr noundef nonnull align 4 dereferenceable(100) %23, i64 100, i1 false), !tbaa.struct !131
  br label %cf_is_socket.exit.thread

cf_is_socket.exit.thread:                         ; preds = %5, %cf_is_socket.exit, %11, %21, %22
  %.0 = phi i32 [ 0, %22 ], [ 0, %21 ], [ 2, %11 ], [ 2, %cf_is_socket.exit ], [ 2, %5 ]
  ret i32 %.0
}